; Function Attrs: mustprogress nounwind uwtable
define dso_local noundef nonnull align 8 dereferenceable(48) ptr @_ZN4llvmlsERNS_11raw_ostreamENS_7DDGNode8NodeKindE(ptr noundef nonnull returned align 8 dereferenceable(48) %0, i32 noundef %1) local_unnamed_addr #0 {
  %3 = icmp ult i32 %1, 5
  br i1 %3, label %switch.lookup, label %5

switch.lookup:                                    ; preds = %2
  %4 = zext nneg i32 %1 to i64
  %switch.gep = getelementptr inbounds [5 x ptr], ptr @switch.table._ZN4llvmlsERNS_11raw_ostreamERKNS_7DDGNodeE, i64 0, i64 %4
  %switch.load = load ptr, ptr %switch.gep, align 8
  br label %5

5:                                                ; preds = %switch.lookup, %2
  %.0 = phi ptr [ @.str.5, %2 ], [ %switch.load, %switch.lookup ]
  %6 = tail call noundef i64 @strlen(ptr noundef nonnull dereferenceable(1) %.0) #23
  %7 = getelementptr inbounds nuw i8, ptr %0, i64 24
  %8 = load ptr, ptr %7, align 8
  %9 = getelementptr inbounds nuw i8, ptr %0, i64 32
  %10 = load ptr, ptr %9, align 8
  %11 = ptrtoint ptr %8 to i64
  %12 = ptrtoint ptr %10 to i64
  %13 = sub i64 %11, %12
  %14 = icmp ugt i64 %6, %13
  br i1 %14, label %15, label %17

15:                                               ; preds = %5
  %16 = tail call noundef nonnull align 8 dereferenceable(48) ptr @_ZN4llvm11raw_ostream5writeEPKcm(ptr noundef nonnull align 8 dereferenceable(48) %0, ptr noundef nonnull %.0, i64 noundef %6) #23
  br label %_ZN4llvm11raw_ostreamlsEPKc.exit

17:                                               ; preds = %5
  %.not.i2.i = icmp eq i64 %6, 0
  br i1 %.not.i2.i, label %_ZN4llvm11raw_ostreamlsEPKc.exit, label %18

18:                                               ; preds = %17
  tail call void @llvm.memcpy.p0.p0.i64(ptr align 1 %10, ptr nonnull align 1 %.0, i64 %6, i1 false)
  %19 = load ptr, ptr %9, align 8
  %20 = getelementptr inbounds i8, ptr %19, i64 %6
  store ptr %20, ptr %9, align 8
  br label %_ZN4llvm11raw_ostreamlsEPKc.exit

_ZN4llvm11raw_ostreamlsEPKc.exit:                 ; preds = %15, %17, %18
  ret ptr %0
}